target datalayout = "e-m:e-p270:32:32-p271:32:32-p272:64:64-i64:64-i128:128-f80:128-n8:16:32:64-S128"
target triple = "x86_64-pc-linux-gnu"

%"struct.igl::embree::EmbreeDevice" = type <{ ptr, i32, [4 x i8] }>
%"class.igl::embree::EmbreeRenderer" = type { ptr, %"class.Eigen::Matrix", %"class.Eigen::Matrix.3", %"class.Eigen::Matrix", %"class.Eigen::Matrix.12", i8, i8, i8, float, float, %"class.Eigen::Matrix.21", %"class.Eigen::Matrix.21", %"class.Eigen::Matrix.21", %"class.Eigen::Matrix.21", %"class.Eigen::Matrix.21", float, float, float, [8 x i8], %"class.Eigen::Matrix.31", %"class.Eigen::Matrix.31", %"class.Eigen::Matrix.31", %"class.Eigen::Matrix.41", i8, ptr, i32, i8, ptr }
%"class.Eigen::Matrix.3" = type { %"class.Eigen::PlainObjectBase.4" }
%"class.Eigen::PlainObjectBase.4" = type { %"class.Eigen::DenseStorage.11" }
%"class.Eigen::DenseStorage.11" = type { ptr, i64 }
%"class.Eigen::Matrix" = type { %"class.Eigen::PlainObjectBase" }
%"class.Eigen::PlainObjectBase" = type { %"class.Eigen::DenseStorage" }
%"class.Eigen::DenseStorage" = type { ptr, i64 }
%"class.Eigen::Matrix.12" = type { %"class.Eigen::PlainObjectBase.13" }
%"class.Eigen::PlainObjectBase.13" = type { %"class.Eigen::DenseStorage.20" }
%"class.Eigen::DenseStorage.20" = type { %"struct.Eigen::internal::plain_array" }
%"struct.Eigen::internal::plain_array" = type { [3 x float] }
%"class.Eigen::Matrix.21" = type { %"class.Eigen::PlainObjectBase.22" }
%"class.Eigen::PlainObjectBase.22" = type { %"class.Eigen::DenseStorage.29" }
%"class.Eigen::DenseStorage.29" = type { %"struct.Eigen::internal::plain_array.30" }
%"struct.Eigen::internal::plain_array.30" = type { [3 x float] }
%"class.Eigen::Matrix.31" = type { %"class.Eigen::PlainObjectBase.32" }
%"class.Eigen::PlainObjectBase.32" = type { %"class.Eigen::DenseStorage.39" }
%"class.Eigen::DenseStorage.39" = type { %"struct.Eigen::internal::plain_array.40" }
%"struct.Eigen::internal::plain_array.40" = type { [16 x float] }
%"class.Eigen::Matrix.41" = type { %"class.Eigen::PlainObjectBase.42" }
%"class.Eigen::PlainObjectBase.42" = type { %"class.Eigen::DenseStorage.49" }
%"class.Eigen::DenseStorage.49" = type { %"struct.Eigen::internal::plain_array.50" }
%"struct.Eigen::internal::plain_array.50" = type { [9 x float] }

@_ZTVN3igl6embree14EmbreeRendererE = dso_local unnamed_addr constant { [4 x ptr] } { [4 x ptr] [ptr null, ptr @_ZTIN3igl6embree14EmbreeRendererE, ptr @_ZN3igl6embree14EmbreeRendererD1Ev, ptr @_ZN3igl6embree14EmbreeRendererD0Ev] }, align 8
@_ZZN3igl6embree12EmbreeDevice8instanceEvE1s = linkonce_odr dso_local global %"struct.igl::embree::EmbreeDevice" zeroinitializer, comdat, align 8
@_ZGVZN3igl6embree12EmbreeDevice8instanceEvE1s = linkonce_odr dso_local global i64 0, comdat, align 8
@__dso_handle = external hidden global i8

; Function Attrs: inlinehint mustprogress nounwind uwtable
define linkonce_odr dso_local void @_ZN5Eigen8internal12aligned_freeEPv(ptr noundef %0) #5 comdat {
  %2 = alloca ptr, align 8
  store ptr %0, ptr %2, align 8, !tbaa !153
  %3 = load ptr, ptr %2, align 8, !tbaa !153
  call void @free(ptr noundef %3) #11
  ret void
}

; Function Attrs: inlinehint mustprogress uwtable
define linkonce_odr dso_local void @_ZN5Eigen8internal24conditional_aligned_freeILb1EEEvPv(ptr noundef %0) #4 comdat {
  %2 = alloca ptr, align 8
  store ptr %0, ptr %2, align 8, !tbaa !153
  %3 = load ptr, ptr %2, align 8, !tbaa !153
  call void @_ZN5Eigen8internal12aligned_freeEPv(ptr noundef %3)
  ret void
}

; Function Attrs: inlinehint mustprogress uwtable
define linkonce_odr dso_local void @_ZN5Eigen8internal31conditional_aligned_delete_autoIiLb1EEEvPT_m(ptr noundef %0, i64 noundef %1) #4 comdat {
  %3 = alloca ptr, align 8
  %4 = alloca i64, align 8
  store ptr %0, ptr %3, align 8, !tbaa !118
  store i64 %1, ptr %4, align 8, !tbaa !136
  %5 = load ptr, ptr %3, align 8, !tbaa !118
  call void @_ZN5Eigen8internal24conditional_aligned_freeILb1EEEvPv(ptr noundef %5)
  ret void
}

; Function Attrs: inlinehint mustprogress uwtable
define linkonce_odr dso_local void @_ZN5Eigen8internal31conditional_aligned_delete_autoIfLb1EEEvPT_m(ptr noundef %0, i64 noundef %1) #4 comdat {
  %3 = alloca ptr, align 8
  %4 = alloca i64, align 8
  store ptr %0, ptr %3, align 8, !tbaa !57
  store i64 %1, ptr %4, align 8, !tbaa !136
  %5 = load ptr, ptr %3, align 8, !tbaa !57
  call void @_ZN5Eigen8internal24conditional_aligned_freeILb1EEEvPv(ptr noundef %5)
  ret void
}

; Function Attrs: mustprogress nounwind uwtable
define linkonce_odr dso_local void @_ZN3igl6embree12EmbreeDeviceC2Ev(ptr noundef nonnull align 8 dereferenceable(12) %0) unnamed_addr #1 comdat align 2 {
  %2 = alloca ptr, align 8
  store ptr %0, ptr %2, align 8, !tbaa !288
  %3 = load ptr, ptr %2, align 8
  %4 = getelementptr inbounds nuw %"struct.igl::embree::EmbreeDevice", ptr %3, i32 0, i32 0
  store ptr null, ptr %4, align 8, !tbaa !290
  %5 = getelementptr inbounds nuw %"struct.igl::embree::EmbreeDevice", ptr %3, i32 0, i32 1
  store i32 0, ptr %5, align 8, !tbaa !292
  ret void
}

; Function Attrs: mustprogress nounwind uwtable
define linkonce_odr dso_local void @_ZN5Eigen12DenseStorageIiLin1ELin1ELi3ELi0EED2Ev(ptr noundef nonnull align 8 dereferenceable(16) %0) unnamed_addr #1 comdat align 2 personality ptr @__gxx_personality_v0 {
  %2 = alloca ptr, align 8
  store ptr %0, ptr %2, align 8, !tbaa !297
  %3 = load ptr, ptr %2, align 8
  %4 = getelementptr inbounds nuw %"class.Eigen::DenseStorage.11", ptr %3, i32 0, i32 0
  %5 = load ptr, ptr %4, align 8, !tbaa !299
  %6 = getelementptr inbounds nuw %"class.Eigen::DenseStorage.11", ptr %3, i32 0, i32 1
  %7 = load i64, ptr %6, align 8, !tbaa !300
  %8 = mul nsw i64 3, %7
  invoke void @_ZN5Eigen8internal31conditional_aligned_delete_autoIiLb1EEEvPT_m(ptr noundef %5, i64 noundef %8)
          to label %9 unwind label %10

9:                                                ; preds = %1
  ret void

10:                                               ; preds = %1
  %11 = landingpad { ptr, i32 }
          catch ptr null
  %12 = extractvalue { ptr, i32 } %11, 0
  call void @__clang_call_terminate(ptr %12) #24
  unreachable
}

; Function Attrs: mustprogress nounwind uwtable
define linkonce_odr dso_local void @_ZN5Eigen12DenseStorageIfLin1ELin1ELi3ELi0EED2Ev(ptr noundef nonnull align 8 dereferenceable(16) %0) unnamed_addr #1 comdat align 2 personality ptr @__gxx_personality_v0 {
  %2 = alloca ptr, align 8
  store ptr %0, ptr %2, align 8, !tbaa !293
  %3 = load ptr, ptr %2, align 8
  %4 = getelementptr inbounds nuw %"class.Eigen::DenseStorage", ptr %3, i32 0, i32 0
  %5 = load ptr, ptr %4, align 8, !tbaa !295
  %6 = getelementptr inbounds nuw %"class.Eigen::DenseStorage", ptr %3, i32 0, i32 1
  %7 = load i64, ptr %6, align 8, !tbaa !296
  %8 = mul nsw i64 3, %7
  invoke void @_ZN5Eigen8internal31conditional_aligned_delete_autoIfLb1EEEvPT_m(ptr noundef %5, i64 noundef %8)
          to label %9 unwind label %10

9:                                                ; preds = %1
  ret void

10:                                               ; preds = %1
  %11 = landingpad { ptr, i32 }
          catch ptr null
  %12 = extractvalue { ptr, i32 } %11, 0
  call void @__clang_call_terminate(ptr %12) #24
  unreachable
}

; Function Attrs: mustprogress uwtable
define linkonce_odr dso_local void @_ZN3igl6embree12EmbreeDevice7releaseEv(ptr noundef nonnull align 8 dereferenceable(12) %0) #3 comdat align 2 {
  %2 = alloca ptr, align 8
  store ptr %0, ptr %2, align 8, !tbaa !288
  %3 = load ptr, ptr %2, align 8
  %4 = getelementptr inbounds nuw %"struct.igl::embree::EmbreeDevice", ptr %3, i32 0, i32 1
  %5 = load i32, ptr %4, align 8, !tbaa !292
  %6 = add nsw i32 %5, -1
  store i32 %6, ptr %4, align 8, !tbaa !292
  %7 = icmp ne i32 %6, 0
  br i1 %7, label %12, label %8

8:                                                ; preds = %1
  %9 = getelementptr inbounds nuw %"struct.igl::embree::EmbreeDevice", ptr %3, i32 0, i32 0
  %10 = load ptr, ptr %9, align 8, !tbaa !290
  call void @rtcReleaseDevice(ptr noundef %10)
  %11 = getelementptr inbounds nuw %"struct.igl::embree::EmbreeDevice", ptr %3, i32 0, i32 0
  store ptr null, ptr %11, align 8, !tbaa !290
  br label %12

12:                                               ; preds = %8, %1
  ret void
}

; Function Attrs: mustprogress uwtable
define linkonce_odr dso_local noundef nonnull align 8 dereferenceable(12) ptr @_ZN3igl6embree12EmbreeDevice8instanceEv() #3 comdat align 2 personality ptr @__gxx_personality_v0 {
  %1 = alloca ptr, align 8
  %2 = alloca i32, align 4
  %3 = load atomic i8, ptr @_ZGVZN3igl6embree12EmbreeDevice8instanceEvE1s acquire, align 8
  %4 = icmp eq i8 %3, 0
  br i1 %4, label %5, label %11, !prof !287

5:                                                ; preds = %0
  %6 = call i32 @__cxa_guard_acquire(ptr @_ZGVZN3igl6embree12EmbreeDevice8instanceEvE1s) #11
  %7 = icmp ne i32 %6, 0
  br i1 %7, label %8, label %11

8:                                                ; preds = %5
  invoke void @_ZN3igl6embree12EmbreeDeviceC2Ev(ptr noundef nonnull align 8 dereferenceable(12) @_ZZN3igl6embree12EmbreeDevice8instanceEvE1s)
          to label %9 unwind label %12

9:                                                ; preds = %8
  %10 = call i32 @__cxa_atexit(ptr @_ZN3igl6embree12EmbreeDeviceD2Ev, ptr @_ZZN3igl6embree12EmbreeDevice8instanceEvE1s, ptr @__dso_handle) #11
  call void @__cxa_guard_release(ptr @_ZGVZN3igl6embree12EmbreeDevice8instanceEvE1s) #11
  br label %11

11:                                               ; preds = %9, %5, %0
  ret ptr @_ZZN3igl6embree12EmbreeDevice8instanceEvE1s

12:                                               ; preds = %8
  %13 = landingpad { ptr, i32 }
          cleanup
  %14 = extractvalue { ptr, i32 } %13, 0
  store ptr %14, ptr %1, align 8
  %15 = extractvalue { ptr, i32 } %13, 1
  store i32 %15, ptr %2, align 4
  call void @__cxa_guard_abort(ptr @_ZGVZN3igl6embree12EmbreeDevice8instanceEvE1s) #11
  br label %16

16:                                               ; preds = %12
  %17 = load ptr, ptr %1, align 8
  %18 = load i32, ptr %2, align 4
  %19 = insertvalue { ptr, i32 } poison, ptr %17, 0
  %20 = insertvalue { ptr, i32 } %19, i32 %18, 1
  resume { ptr, i32 } %20
}

; Function Attrs: inlinehint mustprogress nounwind uwtable
define linkonce_odr dso_local void @_ZN5Eigen15PlainObjectBaseINS_6MatrixIiLin1ELi3ELi0ELin1ELi3EEEED2Ev(ptr noundef nonnull align 8 dereferenceable(16) %0) unnamed_addr #5 comdat align 2 {
  %2 = alloca ptr, align 8
  store ptr %0, ptr %2, align 8, !tbaa !101
  %3 = load ptr, ptr %2, align 8
  %4 = getelementptr inbounds nuw %"class.Eigen::PlainObjectBase.4", ptr %3, i32 0, i32 0
  call void @_ZN5Eigen12DenseStorageIiLin1ELin1ELi3ELi0EED2Ev(ptr noundef nonnull align 8 dereferenceable(16) %4) #11
  ret void
}

; Function Attrs: inlinehint mustprogress nounwind uwtable
define linkonce_odr dso_local void @_ZN5Eigen15PlainObjectBaseINS_6MatrixIfLin1ELi3ELi0ELin1ELi3EEEED2Ev(ptr noundef nonnull align 8 dereferenceable(16) %0) unnamed_addr #5 comdat align 2 {
  %2 = alloca ptr, align 8
  store ptr %0, ptr %2, align 8, !tbaa !99
  %3 = load ptr, ptr %2, align 8
  %4 = getelementptr inbounds nuw %"class.Eigen::PlainObjectBase", ptr %3, i32 0, i32 0
  call void @_ZN5Eigen12DenseStorageIfLin1ELin1ELi3ELi0EED2Ev(ptr noundef nonnull align 8 dereferenceable(16) %4) #11
  ret void
}

; Function Attrs: mustprogress uwtable
define linkonce_odr dso_local void @_ZN3igl6embree12EmbreeDevice14release_deviceEv() #3 comdat align 2 {
  %1 = call noundef nonnull align 8 dereferenceable(12) ptr @_ZN3igl6embree12EmbreeDevice8instanceEv()
  call void @_ZN3igl6embree12EmbreeDevice7releaseEv(ptr noundef nonnull align 8 dereferenceable(12) %1)
  ret void
}

; Function Attrs: mustprogress nounwind uwtable
define dso_local void @_ZN3igl6embree14EmbreeRendererD2Ev(ptr noundef nonnull align 16 dereferenceable(416) %0) unnamed_addr #1 align 2 personality ptr @__gxx_personality_v0 {
  %2 = alloca ptr, align 8
  store ptr %0, ptr %2, align 8, !tbaa !15
  %3 = load ptr, ptr %2, align 8
  store ptr getelementptr inbounds inrange(-16, 16) ({ [4 x ptr] }, ptr @_ZTVN3igl6embree14EmbreeRendererE, i32 0, i32 0, i32 2), ptr %3, align 16, !tbaa !74
  %4 = getelementptr inbounds nuw %"class.igl::embree::EmbreeRenderer", ptr %3, i32 0, i32 26
  %5 = load i8, ptr %4, align 4, !tbaa !78, !range !105, !noundef !106
  %6 = trunc i8 %5 to i1
  br i1 %6, label %7, label %9

7:                                                ; preds = %1
  invoke void @_ZN3igl6embree14EmbreeRenderer6deinitEv(ptr noundef nonnull align 16 dereferenceable(416) %3)
          to label %8 unwind label %14

8:                                                ; preds = %7
  br label %9

9:                                                ; preds = %8, %1
  invoke void @_ZN3igl6embree12EmbreeDevice14release_deviceEv()
          to label %10 unwind label %14

10:                                               ; preds = %9
  %11 = getelementptr inbounds nuw %"class.igl::embree::EmbreeRenderer", ptr %3, i32 0, i32 3
  call void @_ZN5Eigen15PlainObjectBaseINS_6MatrixIfLin1ELi3ELi0ELin1ELi3EEEED2Ev(ptr noundef nonnull align 8 dereferenceable(16) %11) #11
  %12 = getelementptr inbounds nuw %"class.igl::embree::EmbreeRenderer", ptr %3, i32 0, i32 2
  call void @_ZN5Eigen15PlainObjectBaseINS_6MatrixIiLin1ELi3ELi0ELin1ELi3EEEED2Ev(ptr noundef nonnull align 8 dereferenceable(16) %12) #11
  %13 = getelementptr inbounds nuw %"class.igl::embree::EmbreeRenderer", ptr %3, i32 0, i32 1
  call void @_ZN5Eigen15PlainObjectBaseINS_6MatrixIfLin1ELi3ELi0ELin1ELi3EEEED2Ev(ptr noundef nonnull align 8 dereferenceable(16) %13) #11
  ret void

14:                                               ; preds = %9, %7
  %15 = landingpad { ptr, i32 }
          catch ptr null
  %16 = extractvalue { ptr, i32 } %15, 0
  call void @__clang_call_terminate(ptr %16) #24
  unreachable
}