; Function Attrs: mustprogress nounwind uwtable
define dso_local void @_ZN3igl6embree14EmbreeRendererD2Ev(ptr noundef nonnull align 16 captures(none) dereferenceable(416) initializes((0, 8)) %0) unnamed_addr #5 align 2 personality ptr @__gxx_personality_v0 {
  store ptr getelementptr inbounds nuw inrange(-16, 16) (i8, ptr @_ZTVN3igl6embree14EmbreeRendererE, i64 16), ptr %0, align 16, !tbaa !51
  %2 = getelementptr inbounds nuw i8, ptr %0, i64 404
  %3 = load i8, ptr %2, align 4, !tbaa !55, !range !93, !noundef !94
  %4 = trunc nuw i8 %3 to i1
  br i1 %4, label %5, label %6

5:                                                ; preds = %1
  invoke void @_ZN3igl6embree14EmbreeRenderer6deinitEv(ptr noundef nonnull align 16 dereferenceable(416) %0)
          to label %6 unwind label %23

6:                                                ; preds = %5, %1
  %7 = load atomic i8, ptr @_ZGVZN3igl6embree12EmbreeDevice8instanceEvE1s acquire, align 8
  %8 = icmp eq i8 %7, 0
  br i1 %8, label %9, label %_ZN3igl6embree12EmbreeDevice8instanceEv.exit.i, !prof !56

9:                                                ; preds = %6
  %10 = tail call i32 @__cxa_guard_acquire(ptr nonnull @_ZGVZN3igl6embree12EmbreeDevice8instanceEvE1s) #25
  %.not.i.i = icmp eq i32 %10, 0
  br i1 %.not.i.i, label %_ZN3igl6embree12EmbreeDevice8instanceEv.exit.i, label %11

11:                                               ; preds = %9
  store ptr null, ptr @_ZZN3igl6embree12EmbreeDevice8instanceEvE1s, align 8, !tbaa !57
  store i32 0, ptr getelementptr inbounds nuw (i8, ptr @_ZZN3igl6embree12EmbreeDevice8instanceEvE1s, i64 8), align 8, !tbaa !59
  %12 = tail call i32 @__cxa_atexit(ptr nonnull @_ZN3igl6embree12EmbreeDeviceD2Ev, ptr nonnull @_ZZN3igl6embree12EmbreeDevice8instanceEvE1s, ptr nonnull @__dso_handle) #25
  tail call void @__cxa_guard_release(ptr nonnull @_ZGVZN3igl6embree12EmbreeDevice8instanceEvE1s) #25
  br label %_ZN3igl6embree12EmbreeDevice8instanceEv.exit.i

_ZN3igl6embree12EmbreeDevice8instanceEv.exit.i:   ; preds = %11, %9, %6
  %13 = load i32, ptr getelementptr inbounds nuw (i8, ptr @_ZZN3igl6embree12EmbreeDevice8instanceEvE1s, i64 8), align 8, !tbaa !59
  %14 = add nsw i32 %13, -1
  store i32 %14, ptr getelementptr inbounds nuw (i8, ptr @_ZZN3igl6embree12EmbreeDevice8instanceEvE1s, i64 8), align 8, !tbaa !59
  %.not.i1.i = icmp eq i32 %14, 0
  br i1 %.not.i1.i, label %15, label %_ZN3igl6embree12EmbreeDevice14release_deviceEv.exit

15:                                               ; preds = %_ZN3igl6embree12EmbreeDevice8instanceEv.exit.i
  %16 = load ptr, ptr @_ZZN3igl6embree12EmbreeDevice8instanceEvE1s, align 8, !tbaa !57
  invoke void @rtcReleaseDevice(ptr noundef %16)
          to label %.noexc unwind label %23

.noexc:                                           ; preds = %15
  store ptr null, ptr @_ZZN3igl6embree12EmbreeDevice8instanceEvE1s, align 8, !tbaa !57
  br label %_ZN3igl6embree12EmbreeDevice14release_deviceEv.exit

_ZN3igl6embree12EmbreeDevice14release_deviceEv.exit: ; preds = %.noexc, %_ZN3igl6embree12EmbreeDevice8instanceEv.exit.i
  %17 = getelementptr inbounds nuw i8, ptr %0, i64 40
  %18 = load ptr, ptr %17, align 8, !tbaa !71
  tail call void @free(ptr noundef %18) #25
  %19 = getelementptr inbounds nuw i8, ptr %0, i64 24
  %20 = load ptr, ptr %19, align 8, !tbaa !72
  tail call void @free(ptr noundef %20) #25
  %21 = getelementptr inbounds nuw i8, ptr %0, i64 8
  %22 = load ptr, ptr %21, align 8, !tbaa !71
  tail call void @free(ptr noundef %22) #25
  ret void

23:                                               ; preds = %15, %5
  %24 = landingpad { ptr, i32 }
          catch ptr null
  %25 = extractvalue { ptr, i32 } %24, 0
  tail call void @__clang_call_terminate(ptr %25) #29
  unreachable
}